target datalayout = "e-m:e-p270:32:32-p271:32:32-p272:64:64-i64:64-i128:128-f80:128-n8:16:32:64-S128"
target triple = "x86_64-pc-linux-gnu"

%"class.__gnu_cxx::__normal_iterator.3" = type { ptr }
%"struct.std::_Vector_base" = type { %"struct.std::_Vector_base<std::unique_ptr<cmCMakePresetsGraphInternal::MacroExpander>, std::allocator<std::unique_ptr<cmCMakePresetsGraphInternal::MacroExpander>>>::_Vector_impl" }
%"struct.std::_Vector_base<std::unique_ptr<cmCMakePresetsGraphInternal::MacroExpander>, std::allocator<std::unique_ptr<cmCMakePresetsGraphInternal::MacroExpander>>>::_Vector_impl" = type { %"struct.std::_Vector_base<std::unique_ptr<cmCMakePresetsGraphInternal::MacroExpander>, std::allocator<std::unique_ptr<cmCMakePresetsGraphInternal::MacroExpander>>>::_Vector_impl_data" }
%"struct.std::_Vector_base<std::unique_ptr<cmCMakePresetsGraphInternal::MacroExpander>, std::allocator<std::unique_ptr<cmCMakePresetsGraphInternal::MacroExpander>>>::_Vector_impl_data" = type { ptr, ptr, ptr }
%"class.std::unique_ptr" = type { %"struct.std::__uniq_ptr_data" }
%"struct.std::__uniq_ptr_data" = type { %"class.std::__uniq_ptr_impl" }
%"class.std::__uniq_ptr_impl" = type { %"class.std::tuple" }
%"class.std::tuple" = type { %"struct.std::_Tuple_impl" }
%"struct.std::_Tuple_impl" = type { %"struct.std::_Head_base.5" }
%"struct.std::_Head_base.5" = type { ptr }

@.str = private unnamed_addr constant [7 x i8] c"vendor\00", align 1

; Function Attrs: mustprogress nounwind uwtable
define linkonce_odr dso_local noundef nonnull align 8 dereferenceable(8) ptr @_ZNSt10_Head_baseILm0EPN27cmCMakePresetsGraphInternal13MacroExpanderELb0EE7_M_headERKS3_(ptr noundef nonnull align 8 dereferenceable(8) %0) #5 comdat align 2 {
  %2 = alloca ptr, align 8
  store ptr %0, ptr %2, align 8
  %3 = load ptr, ptr %2, align 8
  %4 = getelementptr inbounds %"struct.std::_Head_base.5", ptr %3, i32 0, i32 0
  ret ptr %4
}

; Function Attrs: mustprogress nounwind uwtable
define linkonce_odr dso_local noundef nonnull align 8 dereferenceable(8) ptr @_ZNSt11_Tuple_implILm0EJPN27cmCMakePresetsGraphInternal13MacroExpanderESt14default_deleteIS1_EEE7_M_headERKS5_(ptr noundef nonnull align 8 dereferenceable(8) %0) #5 comdat align 2 {
  %2 = alloca ptr, align 8
  store ptr %0, ptr %2, align 8
  %3 = load ptr, ptr %2, align 8
  %4 = call noundef nonnull align 8 dereferenceable(8) ptr @_ZNSt10_Head_baseILm0EPN27cmCMakePresetsGraphInternal13MacroExpanderELb0EE7_M_headERKS3_(ptr noundef nonnull align 8 dereferenceable(8) %3) #3
  ret ptr %4
}

; Function Attrs: mustprogress nounwind uwtable
define linkonce_odr dso_local noundef nonnull align 8 dereferenceable(8) ptr @_ZSt12__get_helperILm0EPN27cmCMakePresetsGraphInternal13MacroExpanderEJSt14default_deleteIS1_EEERKT0_RKSt11_Tuple_implIXT_EJS5_DpT1_EE(ptr noundef nonnull align 8 dereferenceable(8) %0) #5 comdat {
  %2 = alloca ptr, align 8
  store ptr %0, ptr %2, align 8
  %3 = load ptr, ptr %2, align 8
  %4 = call noundef nonnull align 8 dereferenceable(8) ptr @_ZNSt11_Tuple_implILm0EJPN27cmCMakePresetsGraphInternal13MacroExpanderESt14default_deleteIS1_EEE7_M_headERKS5_(ptr noundef nonnull align 8 dereferenceable(8) %3) #3
  ret ptr %4
}

; Function Attrs: mustprogress nounwind uwtable
define linkonce_odr dso_local noundef nonnull align 8 dereferenceable(8) ptr @_ZSt3getILm0EJPN27cmCMakePresetsGraphInternal13MacroExpanderESt14default_deleteIS1_EEERKNSt13tuple_elementIXT_ESt5tupleIJDpT0_EEE4typeERKS9_(ptr noundef nonnull align 8 dereferenceable(8) %0) #5 comdat {
  %2 = alloca ptr, align 8
  store ptr %0, ptr %2, align 8
  %3 = load ptr, ptr %2, align 8
  %4 = call noundef nonnull align 8 dereferenceable(8) ptr @_ZSt12__get_helperILm0EPN27cmCMakePresetsGraphInternal13MacroExpanderEJSt14default_deleteIS1_EEERKT0_RKSt11_Tuple_implIXT_EJS5_DpT1_EE(ptr noundef nonnull align 8 dereferenceable(8) %3) #3
  ret ptr %4
}

; Function Attrs: mustprogress nounwind uwtable
define linkonce_odr dso_local noundef ptr @_ZNKSt15__uniq_ptr_implIN27cmCMakePresetsGraphInternal13MacroExpanderESt14default_deleteIS1_EE6_M_ptrEv(ptr noundef nonnull align 8 dereferenceable(8) %0) #5 comdat align 2 {
  %2 = alloca ptr, align 8
  store ptr %0, ptr %2, align 8
  %3 = load ptr, ptr %2, align 8
  %4 = getelementptr inbounds %"class.std::__uniq_ptr_impl", ptr %3, i32 0, i32 0
  %5 = call noundef nonnull align 8 dereferenceable(8) ptr @_ZSt3getILm0EJPN27cmCMakePresetsGraphInternal13MacroExpanderESt14default_deleteIS1_EEERKNSt13tuple_elementIXT_ESt5tupleIJDpT0_EEE4typeERKS9_(ptr noundef nonnull align 8 dereferenceable(8) %4) #3
  %6 = load ptr, ptr %5, align 8
  ret ptr %6
}

; Function Attrs: mustprogress nounwind uwtable
define linkonce_odr dso_local noundef ptr @_ZNKSt10unique_ptrIN27cmCMakePresetsGraphInternal13MacroExpanderESt14default_deleteIS1_EE3getEv(ptr noundef nonnull align 8 dereferenceable(8) %0) #5 comdat align 2 {
  %2 = alloca ptr, align 8
  store ptr %0, ptr %2, align 8
  %3 = load ptr, ptr %2, align 8
  %4 = getelementptr inbounds %"class.std::unique_ptr", ptr %3, i32 0, i32 0
  %5 = call noundef ptr @_ZNKSt15__uniq_ptr_implIN27cmCMakePresetsGraphInternal13MacroExpanderESt14default_deleteIS1_EE6_M_ptrEv(ptr noundef nonnull align 8 dereferenceable(8) %4) #3
  ret ptr %5
}

; Function Attrs: mustprogress nounwind uwtable
define linkonce_odr dso_local noundef nonnull align 8 dereferenceable(8) ptr @_ZNK9__gnu_cxx17__normal_iteratorIPKSt10unique_ptrIN27cmCMakePresetsGraphInternal13MacroExpanderESt14default_deleteIS3_EESt6vectorIS6_SaIS6_EEE4baseEv(ptr noundef nonnull align 8 dereferenceable(8) %0) #5 comdat align 2 {
  %2 = alloca ptr, align 8
  store ptr %0, ptr %2, align 8
  %3 = load ptr, ptr %2, align 8
  %4 = getelementptr inbounds %"class.__gnu_cxx::__normal_iterator.3", ptr %3, i32 0, i32 0
  ret ptr %4
}

; Function Attrs: mustprogress nounwind uwtable
define linkonce_odr dso_local void @_ZN9__gnu_cxx17__normal_iteratorIPKSt10unique_ptrIN27cmCMakePresetsGraphInternal13MacroExpanderESt14default_deleteIS3_EESt6vectorIS6_SaIS6_EEEC2ERKS8_(ptr noundef nonnull align 8 dereferenceable(8) %0, ptr noundef nonnull align 8 dereferenceable(8) %1) unnamed_addr #5 comdat align 2 {
  %3 = alloca ptr, align 8
  %4 = alloca ptr, align 8
  store ptr %0, ptr %3, align 8
  store ptr %1, ptr %4, align 8
  %5 = load ptr, ptr %3, align 8
  %6 = getelementptr inbounds %"class.__gnu_cxx::__normal_iterator.3", ptr %5, i32 0, i32 0
  %7 = load ptr, ptr %4, align 8
  %8 = load ptr, ptr %7, align 8
  store ptr %8, ptr %6, align 8
  ret void
}

; Function Attrs: mustprogress nounwind uwtable
define linkonce_odr dso_local noundef zeroext i1 @_ZSteqIcSt11char_traitsIcESaIcEEbRKNSt7__cxx1112basic_stringIT_T0_T1_EEPKS5_(ptr noundef nonnull align 8 dereferenceable(32) %0, ptr noundef %1) #5 comdat {
  %3 = alloca ptr, align 8
  %4 = alloca ptr, align 8
  store ptr %0, ptr %3, align 8
  store ptr %1, ptr %4, align 8
  %5 = load ptr, ptr %3, align 8
  %6 = load ptr, ptr %4, align 8
  %7 = call noundef i32 @_ZNKSt7__cxx1112basic_stringIcSt11char_traitsIcESaIcEE7compareEPKc(ptr noundef nonnull align 8 dereferenceable(32) %5, ptr noundef %6) #3
  %8 = icmp eq i32 %7, 0
  ret i1 %8
}

; Function Attrs: mustprogress nounwind uwtable
define linkonce_odr dso_local noundef nonnull align 8 dereferenceable(8) ptr @_ZN9__gnu_cxx17__normal_iteratorIPKSt10unique_ptrIN27cmCMakePresetsGraphInternal13MacroExpanderESt14default_deleteIS3_EESt6vectorIS6_SaIS6_EEEppEv(ptr noundef nonnull align 8 dereferenceable(8) %0) #5 comdat align 2 {
  %2 = alloca ptr, align 8
  store ptr %0, ptr %2, align 8
  %3 = load ptr, ptr %2, align 8
  %4 = getelementptr inbounds %"class.__gnu_cxx::__normal_iterator.3", ptr %3, i32 0, i32 0
  %5 = load ptr, ptr %4, align 8
  %6 = getelementptr inbounds %"class.std::unique_ptr", ptr %5, i32 1
  store ptr %6, ptr %4, align 8
  ret ptr %3
}

; Function Attrs: mustprogress nounwind uwtable
define linkonce_odr dso_local noundef nonnull align 8 dereferenceable(8) ptr @_ZNKSt10unique_ptrIN27cmCMakePresetsGraphInternal13MacroExpanderESt14default_deleteIS1_EEdeEv(ptr noundef nonnull align 8 dereferenceable(8) %0) #5 comdat align 2 {
  %2 = alloca ptr, align 8
  store ptr %0, ptr %2, align 8
  %3 = load ptr, ptr %2, align 8
  br label %4

4:                                                ; preds = %1
  br label %5

5:                                                ; preds = %4
  br label %6

6:                                                ; preds = %5
  %7 = call noundef ptr @_ZNKSt10unique_ptrIN27cmCMakePresetsGraphInternal13MacroExpanderESt14default_deleteIS1_EE3getEv(ptr noundef nonnull align 8 dereferenceable(8) %3) #3
  ret ptr %7
}

; Function Attrs: mustprogress nounwind uwtable
define linkonce_odr dso_local noundef nonnull align 8 dereferenceable(8) ptr @_ZNK9__gnu_cxx17__normal_iteratorIPKSt10unique_ptrIN27cmCMakePresetsGraphInternal13MacroExpanderESt14default_deleteIS3_EESt6vectorIS6_SaIS6_EEEdeEv(ptr noundef nonnull align 8 dereferenceable(8) %0) #5 comdat align 2 {
  %2 = alloca ptr, align 8
  store ptr %0, ptr %2, align 8
  %3 = load ptr, ptr %2, align 8
  %4 = getelementptr inbounds %"class.__gnu_cxx::__normal_iterator.3", ptr %3, i32 0, i32 0
  %5 = load ptr, ptr %4, align 8
  ret ptr %5
}

; Function Attrs: mustprogress nounwind uwtable
define linkonce_odr dso_local noundef zeroext i1 @_ZN9__gnu_cxxneIPKSt10unique_ptrIN27cmCMakePresetsGraphInternal13MacroExpanderESt14default_deleteIS3_EESt6vectorIS6_SaIS6_EEEEbRKNS_17__normal_iteratorIT_T0_EESH_(ptr noundef nonnull align 8 dereferenceable(8) %0, ptr noundef nonnull align 8 dereferenceable(8) %1) #5 comdat {
  %3 = alloca ptr, align 8
  %4 = alloca ptr, align 8
  store ptr %0, ptr %3, align 8
  store ptr %1, ptr %4, align 8
  %5 = load ptr, ptr %3, align 8
  %6 = call noundef nonnull align 8 dereferenceable(8) ptr @_ZNK9__gnu_cxx17__normal_iteratorIPKSt10unique_ptrIN27cmCMakePresetsGraphInternal13MacroExpanderESt14default_deleteIS3_EESt6vectorIS6_SaIS6_EEE4baseEv(ptr noundef nonnull align 8 dereferenceable(8) %5) #3
  %7 = load ptr, ptr %6, align 8
  %8 = load ptr, ptr %4, align 8
  %9 = call noundef nonnull align 8 dereferenceable(8) ptr @_ZNK9__gnu_cxx17__normal_iteratorIPKSt10unique_ptrIN27cmCMakePresetsGraphInternal13MacroExpanderESt14default_deleteIS3_EESt6vectorIS6_SaIS6_EEE4baseEv(ptr noundef nonnull align 8 dereferenceable(8) %8) #3
  %10 = load ptr, ptr %9, align 8
  %11 = icmp ne ptr %7, %10
  ret i1 %11
}

; Function Attrs: mustprogress nounwind uwtable
define linkonce_odr dso_local ptr @_ZNKSt6vectorISt10unique_ptrIN27cmCMakePresetsGraphInternal13MacroExpanderESt14default_deleteIS2_EESaIS5_EE3endEv(ptr noundef nonnull align 8 dereferenceable(24) %0) #5 comdat align 2 {
  %2 = alloca %"class.__gnu_cxx::__normal_iterator.3", align 8
  %3 = alloca ptr, align 8
  store ptr %0, ptr %3, align 8
  %4 = load ptr, ptr %3, align 8
  %5 = getelementptr inbounds %"struct.std::_Vector_base", ptr %4, i32 0, i32 0
  %6 = getelementptr inbounds %"struct.std::_Vector_base<std::unique_ptr<cmCMakePresetsGraphInternal::MacroExpander>, std::allocator<std::unique_ptr<cmCMakePresetsGraphInternal::MacroExpander>>>::_Vector_impl_data", ptr %5, i32 0, i32 1
  call void @_ZN9__gnu_cxx17__normal_iteratorIPKSt10unique_ptrIN27cmCMakePresetsGraphInternal13MacroExpanderESt14default_deleteIS3_EESt6vectorIS6_SaIS6_EEEC2ERKS8_(ptr noundef nonnull align 8 dereferenceable(8) %2, ptr noundef nonnull align 8 dereferenceable(8) %6) #3
  %7 = getelementptr inbounds %"class.__gnu_cxx::__normal_iterator.3", ptr %2, i32 0, i32 0
  %8 = load ptr, ptr %7, align 8
  ret ptr %8
}

; Function Attrs: mustprogress nounwind uwtable
define linkonce_odr dso_local ptr @_ZNKSt6vectorISt10unique_ptrIN27cmCMakePresetsGraphInternal13MacroExpanderESt14default_deleteIS2_EESaIS5_EE5beginEv(ptr noundef nonnull align 8 dereferenceable(24) %0) #5 comdat align 2 {
  %2 = alloca %"class.__gnu_cxx::__normal_iterator.3", align 8
  %3 = alloca ptr, align 8
  store ptr %0, ptr %3, align 8
  %4 = load ptr, ptr %3, align 8
  %5 = getelementptr inbounds %"struct.std::_Vector_base", ptr %4, i32 0, i32 0
  %6 = getelementptr inbounds %"struct.std::_Vector_base<std::unique_ptr<cmCMakePresetsGraphInternal::MacroExpander>, std::allocator<std::unique_ptr<cmCMakePresetsGraphInternal::MacroExpander>>>::_Vector_impl_data", ptr %5, i32 0, i32 0
  call void @_ZN9__gnu_cxx17__normal_iteratorIPKSt10unique_ptrIN27cmCMakePresetsGraphInternal13MacroExpanderESt14default_deleteIS3_EESt6vectorIS6_SaIS6_EEEC2ERKS8_(ptr noundef nonnull align 8 dereferenceable(8) %2, ptr noundef nonnull align 8 dereferenceable(8) %6) #3
  %7 = getelementptr inbounds %"class.__gnu_cxx::__normal_iterator.3", ptr %2, i32 0, i32 0
  %8 = load ptr, ptr %7, align 8
  ret ptr %8
}

; Function Attrs: mustprogress uwtable
define dso_local noundef i32 @_ZN27cmCMakePresetsGraphInternal11ExpandMacroERNSt7__cxx1112basic_stringIcSt11char_traitsIcESaIcEEERKS5_S8_RKSt6vectorISt10unique_ptrINS_13MacroExpanderESt14default_deleteISB_EESaISE_EEi(ptr noundef nonnull align 8 dereferenceable(32) %0, ptr noundef nonnull align 8 dereferenceable(32) %1, ptr noundef nonnull align 8 dereferenceable(32) %2, ptr noundef nonnull align 8 dereferenceable(24) %3, i32 noundef %4) #4 {
  %6 = alloca i32, align 4
  %7 = alloca ptr, align 8
  %8 = alloca ptr, align 8
  %9 = alloca ptr, align 8
  %10 = alloca ptr, align 8
  %11 = alloca i32, align 4
  %12 = alloca ptr, align 8
  %13 = alloca %"class.__gnu_cxx::__normal_iterator.3", align 8
  %14 = alloca %"class.__gnu_cxx::__normal_iterator.3", align 8
  %15 = alloca ptr, align 8
  %16 = alloca i32, align 4
  store ptr %0, ptr %7, align 8
  store ptr %1, ptr %8, align 8
  store ptr %2, ptr %9, align 8
  store ptr %3, ptr %10, align 8
  store i32 %4, ptr %11, align 4
  %17 = load ptr, ptr %10, align 8
  store ptr %17, ptr %12, align 8
  %18 = load ptr, ptr %12, align 8
  %19 = call ptr @_ZNKSt6vectorISt10unique_ptrIN27cmCMakePresetsGraphInternal13MacroExpanderESt14default_deleteIS2_EESaIS5_EE5beginEv(ptr noundef nonnull align 8 dereferenceable(24) %18) #3
  %20 = getelementptr inbounds %"class.__gnu_cxx::__normal_iterator.3", ptr %13, i32 0, i32 0
  store ptr %19, ptr %20, align 8
  %21 = load ptr, ptr %12, align 8
  %22 = call ptr @_ZNKSt6vectorISt10unique_ptrIN27cmCMakePresetsGraphInternal13MacroExpanderESt14default_deleteIS2_EESaIS5_EE3endEv(ptr noundef nonnull align 8 dereferenceable(24) %21) #3
  %23 = getelementptr inbounds %"class.__gnu_cxx::__normal_iterator.3", ptr %14, i32 0, i32 0
  store ptr %22, ptr %23, align 8
  br label %24

24:                                               ; preds = %43, %5
  %25 = call noundef zeroext i1 @_ZN9__gnu_cxxneIPKSt10unique_ptrIN27cmCMakePresetsGraphInternal13MacroExpanderESt14default_deleteIS3_EESt6vectorIS6_SaIS6_EEEEbRKNS_17__normal_iteratorIT_T0_EESH_(ptr noundef nonnull align 8 dereferenceable(8) %13, ptr noundef nonnull align 8 dereferenceable(8) %14) #3
  br i1 %25, label %26, label %45

26:                                               ; preds = %24
  %27 = call noundef nonnull align 8 dereferenceable(8) ptr @_ZNK9__gnu_cxx17__normal_iteratorIPKSt10unique_ptrIN27cmCMakePresetsGraphInternal13MacroExpanderESt14default_deleteIS3_EESt6vectorIS6_SaIS6_EEEdeEv(ptr noundef nonnull align 8 dereferenceable(8) %13) #3
  store ptr %27, ptr %15, align 8
  %28 = load ptr, ptr %15, align 8
  %29 = call noundef nonnull align 8 dereferenceable(8) ptr @_ZNKSt10unique_ptrIN27cmCMakePresetsGraphInternal13MacroExpanderESt14default_deleteIS1_EEdeEv(ptr noundef nonnull align 8 dereferenceable(8) %28) #3
  %30 = load ptr, ptr %8, align 8
  %31 = load ptr, ptr %9, align 8
  %32 = load ptr, ptr %7, align 8
  %33 = load i32, ptr %11, align 4
  %34 = load ptr, ptr %29, align 8
  %35 = getelementptr inbounds ptr, ptr %34, i64 0
  %36 = load ptr, ptr %35, align 8
  %37 = call noundef i32 %36(ptr noundef nonnull align 8 dereferenceable(8) %29, ptr noundef nonnull align 8 dereferenceable(32) %30, ptr noundef nonnull align 8 dereferenceable(32) %31, ptr noundef nonnull align 8 dereferenceable(32) %32, i32 noundef %33)
  store i32 %37, ptr %16, align 4
  %38 = load i32, ptr %16, align 4
  %39 = icmp ne i32 %38, 1
  br i1 %39, label %40, label %42

40:                                               ; preds = %26
  %41 = load i32, ptr %16, align 4
  store i32 %41, ptr %6, align 4
  br label %50

42:                                               ; preds = %26
  br label %43

43:                                               ; preds = %42
  %44 = call noundef nonnull align 8 dereferenceable(8) ptr @_ZN9__gnu_cxx17__normal_iteratorIPKSt10unique_ptrIN27cmCMakePresetsGraphInternal13MacroExpanderESt14default_deleteIS3_EESt6vectorIS6_SaIS6_EEEppEv(ptr noundef nonnull align 8 dereferenceable(8) %13) #3
  br label %24

45:                                               ; preds = %24
  %46 = load ptr, ptr %8, align 8
  %47 = call noundef zeroext i1 @_ZSteqIcSt11char_traitsIcESaIcEEbRKNSt7__cxx1112basic_stringIT_T0_T1_EEPKS5_(ptr noundef nonnull align 8 dereferenceable(32) %46, ptr noundef @.str)
  br i1 %47, label %48, label %49

48:                                               ; preds = %45
  store i32 1, ptr %6, align 4
  br label %50

49:                                               ; preds = %45
  store i32 2, ptr %6, align 4
  br label %50

50:                                               ; preds = %49, %48, %40
  %51 = load i32, ptr %6, align 4
  ret i32 %51
}