; Function Attrs: mustprogress uwtable
define dso_local noundef i32 @_ZN27cmCMakePresetsGraphInternal11ExpandMacroERNSt7__cxx1112basic_stringIcSt11char_traitsIcESaIcEEERKS5_S8_RKSt6vectorISt10unique_ptrINS_13MacroExpanderESt14default_deleteISB_EESaISE_EEi(ptr noundef nonnull align 8 dereferenceable(32) %0, ptr noundef nonnull align 8 dereferenceable(32) %1, ptr noundef nonnull align 8 dereferenceable(32) %2, ptr nocapture noundef nonnull readonly align 8 dereferenceable(24) %3, i32 noundef %4) local_unnamed_addr #3 {
  %6 = load ptr, ptr %3, align 8
  %7 = getelementptr inbounds i8, ptr %3, i64 8
  %8 = load ptr, ptr %7, align 8
  %.not1516 = icmp eq ptr %6, %8
  br i1 %.not1516, label %._crit_edge, label %.lr.ph

9:                                                ; preds = %.lr.ph
  %10 = getelementptr inbounds i8, ptr %.sroa.012.017, i64 8
  %.not15 = icmp eq ptr %10, %8
  br i1 %.not15, label %._crit_edge, label %.lr.ph

.lr.ph:                                           ; preds = %5, %9
  %.sroa.012.017 = phi ptr [ %10, %9 ], [ %6, %5 ]
  %11 = load ptr, ptr %.sroa.012.017, align 8
  %12 = load ptr, ptr %11, align 8
  %13 = load ptr, ptr %12, align 8
  %14 = tail call noundef i32 %13(ptr noundef nonnull align 8 dereferenceable(8) %11, ptr noundef nonnull align 8 dereferenceable(32) %1, ptr noundef nonnull align 8 dereferenceable(32) %2, ptr noundef nonnull align 8 dereferenceable(32) %0, i32 noundef %4)
  %.not = icmp eq i32 %14, 1
  br i1 %.not, label %9, label %.loopexit

._crit_edge:                                      ; preds = %9, %5
  %15 = tail call noundef i32 @_ZNKSt7__cxx1112basic_stringIcSt11char_traitsIcESaIcEE7compareEPKc(ptr noundef nonnull align 8 dereferenceable(32) %1, ptr noundef nonnull @.str) #20
  %16 = icmp eq i32 %15, 0
  %. = select i1 %16, i32 1, i32 2
  br label %.loopexit

.loopexit:                                        ; preds = %.lr.ph, %._crit_edge
  %.0 = phi i32 [ %., %._crit_edge ], [ %14, %.lr.ph ]
  ret i32 %.0
}